ARM GAS  C:\Users\charl\AppData\Local\Temp\cc87PyK0.s 			page 1


   1              		.syntax unified
   2              		.cpu cortex-m3
   3              		.fpu softvfp
   4              		.eabi_attribute 20, 1
   5              		.eabi_attribute 21, 1
   6              		.eabi_attribute 23, 3
   7              		.eabi_attribute 24, 1
   8              		.eabi_attribute 25, 1
   9              		.eabi_attribute 26, 1
  10              		.eabi_attribute 30, 6
  11              		.eabi_attribute 34, 1
  12              		.eabi_attribute 18, 4
  13              		.thumb
  14              		.file	"main.c"
  15              		.text
  16              	.Ltext0:
  17              		.cfi_sections	.debug_frame
  18              		.section	.rodata
  19              		.align	2
  20              	.LC0:
  21 0000 434F4D20 		.ascii	"COM Port Open\000"
  21      506F7274 
  21      204F7065 
  21      6E00
  22 000e 0000     		.section	.text.main,"ax",%progbits
  23              		.align	2
  24              		.global	main
  25              		.thumb
  26              		.thumb_func
  27              		.type	main, %function
  28              	main:
  29              	.LFB63:
  30              		.file 1 ".\\main.c"
   1:.\main.c      **** /******************************************************************************
   2:.\main.c      **** * Project Name		: VTM16 Current Sensors
   3:.\main.c      **** * File Name			: main.c
   4:.\main.c      **** * Version 			: **
   5:.\main.c      **** * Device Used		: CY8C5888LTI-LP097
   6:.\main.c      **** * Software Used		: PSoC Creator 3.3 SP2
   7:.\main.c      **** * Compiler    		: ARM GCC 4.8.4, ARM RVDS Generic, ARM MDK Generic
   8:.\main.c      **** * Related Hardware	: CY8CKIT059 PSoC 5 LP Prototyping Kit 
   9:.\main.c      **** *******************************************************************************/
  10:.\main.c      **** //This started as the UART-ADC sample program for the PSOC 5lP.  Much of the code from the example 
  11:.\main.c      **** //This program is setup to use the PSOC as an ADC for the VTM DAQ.  It transmits the ADC data over 
  12:.\main.c      **** 
  13:.\main.c      **** #include <device.h>
  14:.\main.c      **** #include "stdio.h"
  15:.\main.c      **** 
  16:.\main.c      **** /* Project Defines */
  17:.\main.c      **** #define FALSE  0
  18:.\main.c      **** #define TRUE   1
  19:.\main.c      **** #define TRANSMIT_BUFFER_SIZE  16 //UART 
  20:.\main.c      **** /*I2C*/
  21:.\main.c      **** #define I2C_BUFFER_SIZE 0x18   
  22:.\main.c      **** #define I2C_RW_AREA_SIZE 0x01 //needs to be 0x01 to have a place for the offset data pointer?
  23:.\main.c      **** 
  24:.\main.c      **** 
ARM GAS  C:\Users\charl\AppData\Local\Temp\cc87PyK0.s 			page 2


  25:.\main.c      **** //Need to use ezi2c_get_activity to develop a mechanism for data coherency
  26:.\main.c      **** //Only write to buffer if it is not busy
  27:.\main.c      **** void main()
  28:.\main.c      **** {
  31              		.loc 1 28 0
  32              		.cfi_startproc
  33              		@ args = 0, pretend = 0, frame = 128
  34              		@ frame_needed = 1, uses_anonymous_args = 0
  35 0000 80B5     		push	{r7, lr}
  36              		.cfi_def_cfa_offset 8
  37              		.cfi_offset 7, -8
  38              		.cfi_offset 14, -4
  39 0002 A0B0     		sub	sp, sp, #128
  40              		.cfi_def_cfa_offset 136
  41 0004 00AF     		add	r7, sp, #0
  42              		.cfi_def_cfa_register 7
  29:.\main.c      ****     /* Variable to store ADC result */
  30:.\main.c      ****     int16 Output;
  31:.\main.c      ****     int32 data[12];
  32:.\main.c      ****     uint8 lowByte[12];
  33:.\main.c      ****     uint8 highByte[12];
  34:.\main.c      ****     /* Variable to store UART received character */
  35:.\main.c      ****     uint8 Ch;
  36:.\main.c      ****     /* Variable used to send emulated data */
  37:.\main.c      ****     uint8 EmulatedData;
  38:.\main.c      ****     /* Flags used to store transmit data commands */
  39:.\main.c      ****     uint8 ContinuouslySendData;
  40:.\main.c      ****     uint8 SendSingleByte;
  41:.\main.c      ****     uint8 SendEmulatedData;
  42:.\main.c      ****     //Set Up i2c variables
  43:.\main.c      ****     CYGlobalIntEnable; //Enable global interrupts for the I2C module
  43              		.loc 1 43 0
  44              	@ 43 ".\main.c" 1
  45 0006 62B6     		CPSIE   i
  46              	@ 0 "" 2
  44:.\main.c      ****     uint8 i2cBuffer[I2C_BUFFER_SIZE];
  45:.\main.c      ****     /* Transmit Buffer */
  46:.\main.c      ****     char TransmitBuffer[TRANSMIT_BUFFER_SIZE];//UART
  47:.\main.c      ****     
  48:.\main.c      ****     
  49:.\main.c      ****     int i;
  50:.\main.c      ****     /* Start the components */
  51:.\main.c      ****     ADC_SAR_Seq_1_Start(); //Current Sensors
  47              		.loc 1 51 0
  48              		.thumb
  49 0008 FFF7FEFF 		bl	ADC_SAR_Seq_1_Start
  52:.\main.c      ****     ADC_SAR_Seq_2_Start(); //Shock Pots + Steering angle
  50              		.loc 1 52 0
  51 000c FFF7FEFF 		bl	ADC_SAR_Seq_2_Start
  53:.\main.c      ****  //   ADC_DelSig_1_Start(); //Brake Temp   
  54:.\main.c      ****     UART_1_Start();
  52              		.loc 1 54 0
  53 0010 FFF7FEFF 		bl	UART_1_Start
  55:.\main.c      ****     EZI2C_1_Start();
  54              		.loc 1 55 0
  55 0014 FFF7FEFF 		bl	EZI2C_1_Start
  56:.\main.c      ****     EZI2C_1_SetBuffer1(I2C_BUFFER_SIZE, I2C_RW_AREA_SIZE, i2cBuffer); 
ARM GAS  C:\Users\charl\AppData\Local\Temp\cc87PyK0.s 			page 3


  56              		.loc 1 56 0
  57 0018 07F11403 		add	r3, r7, #20
  58 001c 1820     		movs	r0, #24
  59 001e 0121     		movs	r1, #1
  60 0020 1A46     		mov	r2, r3
  61 0022 FFF7FEFF 		bl	EZI2C_1_SetBuffer1
  57:.\main.c      ****     
  58:.\main.c      ****     /* Initialize Variables */
  59:.\main.c      ****     ContinuouslySendData = FALSE;
  62              		.loc 1 59 0
  63 0026 0023     		movs	r3, #0
  64 0028 87F87B30 		strb	r3, [r7, #123]
  60:.\main.c      ****     SendSingleByte = FALSE;
  65              		.loc 1 60 0
  66 002c 0023     		movs	r3, #0
  67 002e 87F87A30 		strb	r3, [r7, #122]
  61:.\main.c      ****     SendEmulatedData = FALSE;
  68              		.loc 1 61 0
  69 0032 0023     		movs	r3, #0
  70 0034 87F87930 		strb	r3, [r7, #121]
  62:.\main.c      ****     EmulatedData = 0;
  71              		.loc 1 62 0
  72 0038 0023     		movs	r3, #0
  73 003a 87F87830 		strb	r3, [r7, #120]
  63:.\main.c      ****     
  64:.\main.c      ****     /* Start the ADC conversion */
  65:.\main.c      ****     ADC_SAR_Seq_1_StartConvert();
  74              		.loc 1 65 0
  75 003e FFF7FEFF 		bl	ADC_SAR_Seq_1_StartConvert
  66:.\main.c      ****     ADC_SAR_Seq_2_StartConvert();  
  76              		.loc 1 66 0
  77 0042 FFF7FEFF 		bl	ADC_SAR_Seq_2_StartConvert
  67:.\main.c      **** //    ADC_DelSig_1_StartConvert(); 
  68:.\main.c      ****     
  69:.\main.c      ****     
  70:.\main.c      ****     /* Send message to verify COM port is connected properly */
  71:.\main.c      ****     UART_1_PutString("COM Port Open");
  78              		.loc 1 71 0
  79 0046 6148     		ldr	r0, .L20
  80 0048 FFF7FEFF 		bl	UART_1_PutString
  81              	.L18:
  72:.\main.c      ****     
  73:.\main.c      ****     for(;;)
  74:.\main.c      ****     {        
  75:.\main.c      ****         /* Non-blocking call to get the latest data recieved  */
  76:.\main.c      ****         Ch = UART_1_GetChar();
  82              		.loc 1 76 0
  83 004c FFF7FEFF 		bl	UART_1_GetChar
  84 0050 0346     		mov	r3, r0
  85 0052 87F87730 		strb	r3, [r7, #119]
  77:.\main.c      ****         
  78:.\main.c      ****         /* Set flags based on UART command */
  79:.\main.c      ****         switch(Ch)
  86              		.loc 1 79 0
  87 0056 97F87730 		ldrb	r3, [r7, #119]	@ zero_extendqisi2
  88 005a 582B     		cmp	r3, #88
  89 005c 21D0     		beq	.L3
ARM GAS  C:\Users\charl\AppData\Local\Temp\cc87PyK0.s 			page 4


  90 005e 582B     		cmp	r3, #88
  91 0060 0BDC     		bgt	.L4
  92 0062 432B     		cmp	r3, #67
  93 0064 15D0     		beq	.L5
  94 0066 432B     		cmp	r3, #67
  95 0068 02DC     		bgt	.L6
  96 006a 002B     		cmp	r3, #0
  97 006c 21D0     		beq	.L19
  80:.\main.c      ****         {
  81:.\main.c      ****             case 0:
  82:.\main.c      ****                 /* No new data was recieved */
  83:.\main.c      ****                 break;
  84:.\main.c      ****             case 'C':
  85:.\main.c      ****             case 'c':
  86:.\main.c      ****                 SendSingleByte = TRUE;
  87:.\main.c      ****                 break;
  88:.\main.c      ****             case 'S':
  89:.\main.c      ****             case 's':
  90:.\main.c      ****                 ContinuouslySendData = TRUE;
  91:.\main.c      ****                 break;
  92:.\main.c      ****             case 'X':
  93:.\main.c      ****             case 'x':
  94:.\main.c      ****                 ContinuouslySendData = FALSE;
  95:.\main.c      ****                 break;
  96:.\main.c      ****             case 'E':
  97:.\main.c      ****             case 'e':
  98:.\main.c      ****                 SendEmulatedData = TRUE;
  99:.\main.c      ****                 break;
 100:.\main.c      ****             default:
 101:.\main.c      ****                 /* Place error handling code here */
 102:.\main.c      ****                 break;    
  98              		.loc 1 102 0
  99 006e 21E0     		b	.L11
 100              	.L6:
  79:.\main.c      ****         {
 101              		.loc 1 79 0
 102 0070 452B     		cmp	r3, #69
 103 0072 1AD0     		beq	.L8
 104 0074 532B     		cmp	r3, #83
 105 0076 10D0     		beq	.L9
 106              		.loc 1 102 0
 107 0078 1CE0     		b	.L11
 108              	.L4:
  79:.\main.c      ****         {
 109              		.loc 1 79 0
 110 007a 652B     		cmp	r3, #101
 111 007c 15D0     		beq	.L8
 112 007e 652B     		cmp	r3, #101
 113 0080 02DC     		bgt	.L10
 114 0082 632B     		cmp	r3, #99
 115 0084 05D0     		beq	.L5
 116              		.loc 1 102 0
 117 0086 15E0     		b	.L11
 118              	.L10:
  79:.\main.c      ****         {
 119              		.loc 1 79 0
 120 0088 732B     		cmp	r3, #115
ARM GAS  C:\Users\charl\AppData\Local\Temp\cc87PyK0.s 			page 5


 121 008a 06D0     		beq	.L9
 122 008c 782B     		cmp	r3, #120
 123 008e 08D0     		beq	.L3
 124              		.loc 1 102 0
 125 0090 10E0     		b	.L11
 126              	.L5:
  86:.\main.c      ****                 break;
 127              		.loc 1 86 0
 128 0092 0123     		movs	r3, #1
 129 0094 87F87A30 		strb	r3, [r7, #122]
  87:.\main.c      ****             case 'S':
 130              		.loc 1 87 0
 131 0098 0CE0     		b	.L11
 132              	.L9:
  90:.\main.c      ****                 break;
 133              		.loc 1 90 0
 134 009a 0123     		movs	r3, #1
 135 009c 87F87B30 		strb	r3, [r7, #123]
  91:.\main.c      ****             case 'X':
 136              		.loc 1 91 0
 137 00a0 08E0     		b	.L11
 138              	.L3:
  94:.\main.c      ****                 break;
 139              		.loc 1 94 0
 140 00a2 0023     		movs	r3, #0
 141 00a4 87F87B30 		strb	r3, [r7, #123]
  95:.\main.c      ****             case 'E':
 142              		.loc 1 95 0
 143 00a8 04E0     		b	.L11
 144              	.L8:
  98:.\main.c      ****                 break;
 145              		.loc 1 98 0
 146 00aa 0123     		movs	r3, #1
 147 00ac 87F87930 		strb	r3, [r7, #121]
  99:.\main.c      ****             default:
 148              		.loc 1 99 0
 149 00b0 00E0     		b	.L11
 150              	.L19:
  83:.\main.c      ****             case 'C':
 151              		.loc 1 83 0
 152 00b2 00BF     		nop
 153              	.L11:
 103:.\main.c      ****         }
 104:.\main.c      ****         
 105:.\main.c      ****         /* Check to see if an ADC conversion has completed */
 106:.\main.c      ****         //At some point should switch to interrupts
 107:.\main.c      ****         if(ADC_SAR_Seq_1_IsEndConversion(ADC_SAR_Seq_1_RETURN_STATUS))
 154              		.loc 1 107 0
 155 00b4 0120     		movs	r0, #1
 156 00b6 FFF7FEFF 		bl	ADC_SAR_Seq_1_IsEndConversion
 157 00ba 0346     		mov	r3, r0
 158 00bc 002B     		cmp	r3, #0
 159 00be 00F08380 		beq	.L12
 108:.\main.c      ****         {
 109:.\main.c      ****             i = 0;
 160              		.loc 1 109 0
 161 00c2 0023     		movs	r3, #0
ARM GAS  C:\Users\charl\AppData\Local\Temp\cc87PyK0.s 			page 6


 162 00c4 FB67     		str	r3, [r7, #124]
 110:.\main.c      ****             for(i = 0;i<11;i++)  //Current Sensor Read
 163              		.loc 1 110 0
 164 00c6 0023     		movs	r3, #0
 165 00c8 FB67     		str	r3, [r7, #124]
 166 00ca 34E0     		b	.L13
 167              	.L14:
 111:.\main.c      ****             {
 112:.\main.c      ****             Output = ADC_SAR_Seq_1_GetResult16(i);
 168              		.loc 1 112 0 discriminator 3
 169 00cc FB6F     		ldr	r3, [r7, #124]
 170 00ce 9BB2     		uxth	r3, r3
 171 00d0 1846     		mov	r0, r3
 172 00d2 FFF7FEFF 		bl	ADC_SAR_Seq_1_GetResult16
 173 00d6 0346     		mov	r3, r0
 174 00d8 A7F87430 		strh	r3, [r7, #116]	@ movhi
 113:.\main.c      ****             data[i] = ADC_SAR_Seq_1_CountsTo_mVolts(Output);
 175              		.loc 1 113 0 discriminator 3
 176 00dc B7F97430 		ldrsh	r3, [r7, #116]
 177 00e0 1846     		mov	r0, r3
 178 00e2 FFF7FEFF 		bl	ADC_SAR_Seq_1_CountsTo_mVolts
 179 00e6 0246     		mov	r2, r0
 180 00e8 FB6F     		ldr	r3, [r7, #124]
 181 00ea 9B00     		lsls	r3, r3, #2
 182 00ec 07F18001 		add	r1, r7, #128
 183 00f0 0B44     		add	r3, r3, r1
 184 00f2 43F83C2C 		str	r2, [r3, #-60]
 114:.\main.c      ****             //Split the data so that each data point is two bytes so that it can be easily loaded i
 115:.\main.c      ****             lowByte[i] = (data[i] & 0xFF);
 185              		.loc 1 115 0 discriminator 3
 186 00f6 FB6F     		ldr	r3, [r7, #124]
 187 00f8 9B00     		lsls	r3, r3, #2
 188 00fa 07F18002 		add	r2, r7, #128
 189 00fe 1344     		add	r3, r3, r2
 190 0100 53F83C3C 		ldr	r3, [r3, #-60]
 191 0104 D9B2     		uxtb	r1, r3
 192 0106 07F13802 		add	r2, r7, #56
 193 010a FB6F     		ldr	r3, [r7, #124]
 194 010c 1344     		add	r3, r3, r2
 195 010e 0A46     		mov	r2, r1
 196 0110 1A70     		strb	r2, [r3]
 116:.\main.c      ****             highByte[i] = (0xFF & (data[i] >> 8));            
 197              		.loc 1 116 0 discriminator 3
 198 0112 FB6F     		ldr	r3, [r7, #124]
 199 0114 9B00     		lsls	r3, r3, #2
 200 0116 07F18002 		add	r2, r7, #128
 201 011a 1344     		add	r3, r3, r2
 202 011c 53F83C3C 		ldr	r3, [r3, #-60]
 203 0120 1B12     		asrs	r3, r3, #8
 204 0122 D9B2     		uxtb	r1, r3
 205 0124 07F12C02 		add	r2, r7, #44
 206 0128 FB6F     		ldr	r3, [r7, #124]
 207 012a 1344     		add	r3, r3, r2
 208 012c 0A46     		mov	r2, r1
 209 012e 1A70     		strb	r2, [r3]
 110:.\main.c      ****             {
 210              		.loc 1 110 0 discriminator 3
ARM GAS  C:\Users\charl\AppData\Local\Temp\cc87PyK0.s 			page 7


 211 0130 FB6F     		ldr	r3, [r7, #124]
 212 0132 0133     		adds	r3, r3, #1
 213 0134 FB67     		str	r3, [r7, #124]
 214              	.L13:
 110:.\main.c      ****             {
 215              		.loc 1 110 0 is_stmt 0 discriminator 1
 216 0136 FB6F     		ldr	r3, [r7, #124]
 217 0138 0A2B     		cmp	r3, #10
 218 013a C7DD     		ble	.L14
 117:.\main.c      ****             }
 118:.\main.c      ****            while(!ADC_SAR_Seq_2_IsEndConversion(ADC_SAR_Seq_2_RETURN_STATUS)){} 
 219              		.loc 1 118 0 is_stmt 1
 220 013c 00BF     		nop
 221              	.L15:
 222              		.loc 1 118 0 is_stmt 0 discriminator 1
 223 013e 0120     		movs	r0, #1
 224 0140 FFF7FEFF 		bl	ADC_SAR_Seq_2_IsEndConversion
 225 0144 0346     		mov	r3, r0
 226 0146 002B     		cmp	r3, #0
 227 0148 F9D0     		beq	.L15
 119:.\main.c      **** 
 120:.\main.c      ****             Output = ADC_SAR_Seq_2_GetResult16(0);
 228              		.loc 1 120 0 is_stmt 1
 229 014a 0020     		movs	r0, #0
 230 014c FFF7FEFF 		bl	ADC_SAR_Seq_2_GetResult16
 231 0150 0346     		mov	r3, r0
 232 0152 A7F87430 		strh	r3, [r7, #116]	@ movhi
 121:.\main.c      ****             data[11] = ADC_SAR_Seq_2_CountsTo_mVolts(Output);
 233              		.loc 1 121 0
 234 0156 B7F97430 		ldrsh	r3, [r7, #116]
 235 015a 1846     		mov	r0, r3
 236 015c FFF7FEFF 		bl	ADC_SAR_Seq_2_CountsTo_mVolts
 237 0160 0346     		mov	r3, r0
 238 0162 3B67     		str	r3, [r7, #112]
 122:.\main.c      ****             //Split the data so that each data point is two bytes so that it can be easily loaded i
 123:.\main.c      ****             lowByte[11] = (data[11] & 0xFF);
 239              		.loc 1 123 0
 240 0164 3B6F     		ldr	r3, [r7, #112]
 241 0166 DBB2     		uxtb	r3, r3
 242 0168 87F84330 		strb	r3, [r7, #67]
 124:.\main.c      ****             highByte[11] = (0xFF & (data[11] >> 8));              
 243              		.loc 1 124 0
 244 016c 3B6F     		ldr	r3, [r7, #112]
 245 016e 1B12     		asrs	r3, r3, #8
 246 0170 DBB2     		uxtb	r3, r3
 247 0172 87F83730 		strb	r3, [r7, #55]
 125:.\main.c      ****                    
 126:.\main.c      ****  
 127:.\main.c      ****             
 128:.\main.c      ****             if((EZI2C_1_GetActivity() & EZI2C_1_STATUS_BUSY)== 0) //Use this to not interfere with 
 248              		.loc 1 128 0
 249 0176 FFF7FEFF 		bl	EZI2C_1_GetActivity
 250 017a 0346     		mov	r3, r0
 251 017c 03F01003 		and	r3, r3, #16
 252 0180 002B     		cmp	r3, #0
 253 0182 21D1     		bne	.L12
 129:.\main.c      ****             {
ARM GAS  C:\Users\charl\AppData\Local\Temp\cc87PyK0.s 			page 8


 130:.\main.c      ****             //set data into i2c transmit buffer
 131:.\main.c      ****             //Results in 24 bytes in the transmit buffer
 132:.\main.c      ****                 for(i = 0;i<24;i++)
 254              		.loc 1 132 0
 255 0184 0023     		movs	r3, #0
 256 0186 FB67     		str	r3, [r7, #124]
 257 0188 1BE0     		b	.L16
 258              	.L17:
 133:.\main.c      ****                 {
 134:.\main.c      ****                 i2cBuffer[2*i] = lowByte[i];  //First byte
 259              		.loc 1 134 0 discriminator 3
 260 018a FB6F     		ldr	r3, [r7, #124]
 261 018c 5B00     		lsls	r3, r3, #1
 262 018e 07F13801 		add	r1, r7, #56
 263 0192 FA6F     		ldr	r2, [r7, #124]
 264 0194 0A44     		add	r2, r2, r1
 265 0196 1278     		ldrb	r2, [r2]	@ zero_extendqisi2
 266 0198 07F18001 		add	r1, r7, #128
 267 019c 0B44     		add	r3, r3, r1
 268 019e 03F86C2C 		strb	r2, [r3, #-108]
 135:.\main.c      ****                 i2cBuffer[2*i+1] = highByte[i]; //Second Byte
 269              		.loc 1 135 0 discriminator 3
 270 01a2 FB6F     		ldr	r3, [r7, #124]
 271 01a4 5B00     		lsls	r3, r3, #1
 272 01a6 0133     		adds	r3, r3, #1
 273 01a8 07F12C01 		add	r1, r7, #44
 274 01ac FA6F     		ldr	r2, [r7, #124]
 275 01ae 0A44     		add	r2, r2, r1
 276 01b0 1278     		ldrb	r2, [r2]	@ zero_extendqisi2
 277 01b2 07F18001 		add	r1, r7, #128
 278 01b6 0B44     		add	r3, r3, r1
 279 01b8 03F86C2C 		strb	r2, [r3, #-108]
 132:.\main.c      ****                 {
 280              		.loc 1 132 0 discriminator 3
 281 01bc FB6F     		ldr	r3, [r7, #124]
 282 01be 0133     		adds	r3, r3, #1
 283 01c0 FB67     		str	r3, [r7, #124]
 284              	.L16:
 132:.\main.c      ****                 {
 285              		.loc 1 132 0 is_stmt 0 discriminator 1
 286 01c2 FB6F     		ldr	r3, [r7, #124]
 287 01c4 172B     		cmp	r3, #23
 288 01c6 E0DD     		ble	.L17
 289              	.L12:
 136:.\main.c      ****                 }
 137:.\main.c      ****             }
 138:.\main.c      ****             /* Send data based on last UART command */
 139:.\main.c      **** //            if(SendSingleByte || ContinuouslySendData)
 140:.\main.c      **** //            {
 141:.\main.c      **** //                /* Format ADC result for transmition */
 142:.\main.c      **** //                sprintf(TransmitBuffer, "Overall: %ld mV\r\n", data[0]);
 143:.\main.c      **** //                /* Send out the data */
 144:.\main.c      **** //                UART_1_PutString(TransmitBuffer);
 145:.\main.c      **** //                
 146:.\main.c      **** //                sprintf(TransmitBuffer, "Production: %ld mV\r\n", data[1]);
 147:.\main.c      **** //                UART_1_PutString(TransmitBuffer);      
 148:.\main.c      **** //                sprintf(TransmitBuffer, "Fpump: %ld mV\r\n", data[2]);
ARM GAS  C:\Users\charl\AppData\Local\Temp\cc87PyK0.s 			page 9


 149:.\main.c      **** //                UART_1_PutString(TransmitBuffer);                  
 150:.\main.c      **** //                sprintf(TransmitBuffer, "Finj: %ld mV\r\n", data[3]);
 151:.\main.c      **** //                UART_1_PutString(TransmitBuffer);                 
 152:.\main.c      **** //                sprintf(TransmitBuffer, "Ignition: %ld mV\r\n", data[4]);
 153:.\main.c      **** //                UART_1_PutString(TransmitBuffer);                   
 154:.\main.c      **** //                sprintf(TransmitBuffer, "RefV: %ld mV\r\n\n\n\n\n\n\r", data[5]);
 155:.\main.c      **** //                UART_1_PutString(TransmitBuffer);                   
 156:.\main.c      **** //                /* Reset the send once flag */
 157:.\main.c      **** //                SendSingleByte = FALSE;
 158:.\main.c      **** //            }
 159:.\main.c      **** //            else if(SendEmulatedData)
 160:.\main.c      **** //            {
 161:.\main.c      **** //                /* Format ADC result for transmition */
 162:.\main.c      **** //                sprintf(TransmitBuffer, "Emulated Data: %x \r\n", EmulatedData);
 163:.\main.c      **** //                /* Send out the data */
 164:.\main.c      **** //                UART_1_PutString(TransmitBuffer);
 165:.\main.c      **** //                EmulatedData++;
 166:.\main.c      **** //                /* Reset the send once flag */
 167:.\main.c      **** //                SendEmulatedData = FALSE;   
 168:.\main.c      **** //            }
 169:.\main.c      ****         }
 170:.\main.c      ****     }
 290              		.loc 1 170 0 is_stmt 1
 291 01c8 40E7     		b	.L18
 292              	.L21:
 293 01ca 00BF     		.align	2
 294              	.L20:
 295 01cc 00000000 		.word	.LC0
 296              		.cfi_endproc
 297              	.LFE63:
 298              		.size	main, .-main
 299              		.text
 300              	.Letext0:
 301              		.file 2 "c:\\program files (x86)\\cypress\\psoc creator\\3.3\\psoc creator\\import\\gnu\\arm\\4.9.
 302              		.file 3 "c:\\program files (x86)\\cypress\\psoc creator\\3.3\\psoc creator\\import\\gnu\\arm\\4.9.
 303              		.file 4 "Generated_Source\\PSoC5/cytypes.h"
 304              		.file 5 "Generated_Source\\PSoC5/core_cm3.h"